ccopy_reg
_reconstructor
p1
(cpandas.core.frame
DataFrame
p2
c__builtin__
object
p3
NtRp4
(dp5
S'_metadata'
p6
(lp7
sS'_typ'
p8
S'dataframe'
p9
sS'_data'
p10
g1
(cpandas.core.internals
BlockManager
p11
g3
NtRp12
((lp13
cpandas.core.indexes.base
_new_Index
p14
(cpandas.core.indexes.base
Index
p15
(dp16
S'data'
p17
cnumpy.core.multiarray
_reconstruct
p18
(cnumpy
ndarray
p19
(I0
tS'b'
tRp20
(I1
(I3
tcnumpy
dtype
p21
(S'O8'
I0
I1
tRp22
(I3
S'|'
NNNI-1
I-1
I63
tbI00
(lp23
S'document'
p24
aS'token'
p25
aS'tfidf_score'
p26
atbsS'name'
p27
NstRp28
ag14
(g15
(dp29
g17
g18
(g19
(I0
tS'b'
tRp30
(I1
(I0
tg22
I00
(ltbsg27
NstRp31
a(lp32
g18
(g19
(I0
tS'b'
tRp33
(I1
(I3
I0
tg22
I00
(ltba(lp34
g14
(g15
(dp35
g17
g18
(g19
(I0
tS'b'
tRp36
(I1
(I3
tg22
I00
(lp37
g24
ag25
ag26
atbsg27
NstRp38
a(dp39
S'0.14.1'
p40
(dp41
S'axes'
p42
g13
sS'blocks'
p43
(lp44
(dp45
S'mgr_locs'
p46
c__builtin__
slice
p47
(I0
I3
I1
tRp48
sS'values'
p49
g33
sasstbsb.