ccopy_reg
_reconstructor
p1
(cpandas.core.frame
DataFrame
p2
c__builtin__
object
p3
NtRp4
(dp5
S'_metadata'
p6
(lp7
sS'_typ'
p8
S'dataframe'
p9
sS'_data'
p10
g1
(cpandas.core.internals
BlockManager
p11
g3
NtRp12
((lp13
cpandas.core.indexes.base
_new_Index
p14
(cpandas.core.indexes.base
Index
p15
(dp16
S'data'
p17
cnumpy.core.multiarray
_reconstruct
p18
(cnumpy
ndarray
p19
(I0
tS'b'
tRp20
(I1
(I3
tcnumpy
dtype
p21
(S'O8'
I0
I1
tRp22
(I3
S'|'
NNNI-1
I-1
I63
tbI00
(lp23
S'document'
p24
aS'token'
p25
aS'tfidf_score'
p26
atbsS'name'
p27
NstRp28
ag14
(cpandas.core.indexes.range
RangeIndex
p29
(dp30
S'start'
p31
I0
sS'step'
p32
I1
sS'stop'
p33
I5
sg27
NstRp34
a(lp35
g18
(g19
(I0
tS'b'
tRp36
(I1
(I1
I5
tg21
(S'i8'
I0
I1
tRp37
(I3
S'<'
NNNI-1
I-1
I0
tbI00
S'\x00\x00\x00\x00\x00\x00\x00\x00\x00\x00\x00\x00\x00\x00\x00\x00\x00\x00\x00\x00\x00\x00\x00\x00\x00\x00\x00\x00\x00\x00\x00\x00\x00\x00\x00\x00\x00\x00\x00\x00'
tbag18
(g19
(I0
tS'b'
tRp38
(I1
(I1
I5
tg22
I00
(lp39
Vthis
p40
aVis
p41
aVa
aVtest
p42
aVdocument
p43
atbag18
(g19
(I0
tS'b'
tRp44
(I1
(I1
I5
tg21
(S'f8'
I0
I1
tRp45
(I3
S'<'
NNNI-1
I-1
I0
tbI00
S'\xbf\x94.\xff\x9b\xbe\xc1?\xbf\x94.\xff\x9b\xbe\xc1?\xbf\x94.\xff\x9b\xbe\xc1?\xbf\x94.\xff\x9b\xbe\xc1?\xbf\x94.\xff\x9b\xbe\xc1?'
tba(lp46
g14
(g15
(dp47
g17
g18
(g19
(I0
tS'b'
tRp48
(I1
(I1
tg22
I00
(lp49
g24
atbsg27
NstRp50
ag14
(g15
(dp51
g17
g18
(g19
(I0
tS'b'
tRp52
(I1
(I1
tg22
I00
(lp53
g25
atbsg27
NstRp54
ag14
(g15
(dp55
g17
g18
(g19
(I0
tS'b'
tRp56
(I1
(I1
tg22
I00
(lp57
g26
atbsg27
NstRp58
a(dp59
S'0.14.1'
p60
(dp61
S'axes'
p62
g13
sS'blocks'
p63
(lp64
(dp65
S'mgr_locs'
p66
c__builtin__
slice
p67
(I0
I1
I1
tRp68
sS'values'
p69
g36
sa(dp70
g66
g67
(I1
I2
I1
tRp71
sg69
g38
sa(dp72
g66
g67
(I2
I3
I1
tRp73
sg69
g44
sasstbsb.